target datalayout = "e-m:e-p270:32:32-p271:32:32-p272:64:64-i64:64-i128:128-f80:128-n8:16:32:64-S128"
target triple = "x86_64-unknown-linux-gnu"

%"class.smt::theory_array_base.base" = type <{ %"class.smt::theory.base", i8, [2 x i8], i32, [4 x i8], %class.svector.1, %class.ptr_vector, %class.svector.3, %class.svector.3, %class.svector.3, %class.scoped_ptr, %class.ptr_vector.5, %class.obj_map, %class.ptr_hashtable, %class.svector.9, ptr, %class.ptr_vector, %class.ptr_vector.11, %class.svector.1, %class.obj_map.13, %class.ptr_vector, %class.ptr_vector.18, i8 }>
%"class.smt::theory.base" = type <{ ptr, i32, [4 x i8], ptr, ptr, %class.ptr_vector, %class.svector, i32, i8 }>
%class.svector = type { %class.vector.0 }
%class.vector.0 = type { ptr }
%class.svector.3 = type { %class.vector.4 }
%class.vector.4 = type { ptr }
%class.scoped_ptr = type { ptr }
%class.ptr_vector.5 = type { %class.vector.6 }
%class.vector.6 = type { ptr }
%class.obj_map = type { %class.core_hashtable }
%class.core_hashtable = type <{ ptr, i32, i32, i32, [4 x i8] }>
%class.ptr_hashtable = type { %class.core_hashtable.base.8, [4 x i8] }
%class.core_hashtable.base.8 = type <{ ptr, i32, i32, i32 }>
%class.svector.9 = type { %class.vector.10 }
%class.vector.10 = type { ptr }
%class.ptr_vector.11 = type { %class.vector.12 }
%class.vector.12 = type { ptr }
%class.svector.1 = type { %class.vector.2 }
%class.vector.2 = type { ptr }
%class.obj_map.13 = type { %class.core_hashtable.14 }
%class.core_hashtable.14 = type <{ ptr, i32, i32, i32, [4 x i8] }>
%class.ptr_vector.18 = type { %class.vector.19 }
%class.vector.19 = type { ptr }
%class.ptr_vector.20 = type { %class.vector.21 }
%class.vector.21 = type { ptr }
%"struct.smt::theory_array_stats" = type { i32, i32, i32, i32, i32, i32, i32, i32, i32, i32, i32, i32, i32 }
%class.union_find = type { ptr, ptr, %class.svector, %class.svector, %class.svector, %"class.union_find<smt::theory_array>::mk_var_trail" }
%"class.union_find<smt::theory_array>::mk_var_trail" = type { %class.trail, ptr }
%class.trail = type { ptr }
%class.trail_stack = type { %class.ptr_vector.22, %class.svector, %class.region }
%class.ptr_vector.22 = type { %class.vector.23 }
%class.vector.23 = type { ptr }
%class.region = type { ptr, ptr, ptr, ptr, ptr }
%class.ptr_vector = type { %class.vector }
%class.vector = type { ptr }
%"class.smt::theory_array" = type <{ %"class.smt::theory_array_base.base", [7 x i8], %class.ptr_vector.20, ptr, %"struct.smt::theory_array_stats", [4 x i8], %class.union_find, %class.trail_stack, i32, [4 x i8] }>

@.str.13 = private unnamed_addr constant [13 x i8] c"array map ax\00", align 1
@.str.14 = private unnamed_addr constant [16 x i8] c"array def const\00", align 1
@.str.15 = private unnamed_addr constant [16 x i8] c"array sel const\00", align 1
@.str.16 = private unnamed_addr constant [16 x i8] c"array def store\00", align 1
@.str.17 = private unnamed_addr constant [19 x i8] c"array def as-array\00", align 1
@.str.18 = private unnamed_addr constant [19 x i8] c"array sel as-array\00", align 1
@.str.19 = private unnamed_addr constant [17 x i8] c"array def lambda\00", align 1

; Function Attrs: mustprogress uwtable
define hidden void @_ZNK3smt17theory_array_full18collect_statisticsER10statistics(ptr noundef nonnull align 8 dereferenceable(608) %this, ptr noundef nonnull align 8 dereferenceable(16) %st) unnamed_addr #5 align 2 {
entry:
  %this.addr = alloca ptr, align 8
  %st.addr = alloca ptr, align 8
  store ptr %this, ptr %this.addr, align 8
  store ptr %st, ptr %st.addr, align 8
  %this1 = load ptr, ptr %this.addr, align 8
  %0 = load ptr, ptr %st.addr, align 8
  call void @_ZNK3smt12theory_array18collect_statisticsER10statistics(ptr noundef nonnull align 8 dereferenceable(444) %this1, ptr noundef nonnull align 8 dereferenceable(16) %0)
  %1 = load ptr, ptr %st.addr, align 8
  %m_stats = getelementptr inbounds %"class.smt::theory_array", ptr %this1, i32 0, i32 4
  %m_num_map_axiom = getelementptr inbounds %"struct.smt::theory_array_stats", ptr %m_stats, i32 0, i32 5
  %2 = load i32, ptr %m_num_map_axiom, align 4
  call void @_ZN10statistics6updateEPKcj(ptr noundef nonnull align 8 dereferenceable(16) %1, ptr noundef @.str.13, i32 noundef %2)
  %3 = load ptr, ptr %st.addr, align 8
  %m_stats2 = getelementptr inbounds %"class.smt::theory_array", ptr %this1, i32 0, i32 4
  %m_num_default_const_axiom = getelementptr inbounds %"struct.smt::theory_array_stats", ptr %m_stats2, i32 0, i32 9
  %4 = load i32, ptr %m_num_default_const_axiom, align 4
  call void @_ZN10statistics6updateEPKcj(ptr noundef nonnull align 8 dereferenceable(16) %3, ptr noundef @.str.14, i32 noundef %4)
  %5 = load ptr, ptr %st.addr, align 8
  %m_stats3 = getelementptr inbounds %"class.smt::theory_array", ptr %this1, i32 0, i32 4
  %m_num_select_const_axiom = getelementptr inbounds %"struct.smt::theory_array_stats", ptr %m_stats3, i32 0, i32 7
  %6 = load i32, ptr %m_num_select_const_axiom, align 4
  call void @_ZN10statistics6updateEPKcj(ptr noundef nonnull align 8 dereferenceable(16) %5, ptr noundef @.str.15, i32 noundef %6)
  %7 = load ptr, ptr %st.addr, align 8
  %m_stats4 = getelementptr inbounds %"class.smt::theory_array", ptr %this1, i32 0, i32 4
  %m_num_default_store_axiom = getelementptr inbounds %"struct.smt::theory_array_stats", ptr %m_stats4, i32 0, i32 8
  %8 = load i32, ptr %m_num_default_store_axiom, align 8
  call void @_ZN10statistics6updateEPKcj(ptr noundef nonnull align 8 dereferenceable(16) %7, ptr noundef @.str.16, i32 noundef %8)
  %9 = load ptr, ptr %st.addr, align 8
  %m_stats5 = getelementptr inbounds %"class.smt::theory_array", ptr %this1, i32 0, i32 4
  %m_num_default_as_array_axiom = getelementptr inbounds %"struct.smt::theory_array_stats", ptr %m_stats5, i32 0, i32 10
  %10 = load i32, ptr %m_num_default_as_array_axiom, align 8
  call void @_ZN10statistics6updateEPKcj(ptr noundef nonnull align 8 dereferenceable(16) %9, ptr noundef @.str.17, i32 noundef %10)
  %11 = load ptr, ptr %st.addr, align 8
  %m_stats6 = getelementptr inbounds %"class.smt::theory_array", ptr %this1, i32 0, i32 4
  %m_num_select_as_array_axiom = getelementptr inbounds %"struct.smt::theory_array_stats", ptr %m_stats6, i32 0, i32 11
  %12 = load i32, ptr %m_num_select_as_array_axiom, align 4
  call void @_ZN10statistics6updateEPKcj(ptr noundef nonnull align 8 dereferenceable(16) %11, ptr noundef @.str.18, i32 noundef %12)
  %13 = load ptr, ptr %st.addr, align 8
  %m_stats7 = getelementptr inbounds %"class.smt::theory_array", ptr %this1, i32 0, i32 4
  %m_num_default_lambda_axiom = getelementptr inbounds %"struct.smt::theory_array_stats", ptr %m_stats7, i32 0, i32 12
  %14 = load i32, ptr %m_num_default_lambda_axiom, align 8
  call void @_ZN10statistics6updateEPKcj(ptr noundef nonnull align 8 dereferenceable(16) %13, ptr noundef @.str.19, i32 noundef %14)
  ret void
}