; Function Attrs: mustprogress uwtable
define hidden void @_ZNK3smt17theory_array_full18collect_statisticsER10statistics(ptr noundef nonnull align 8 dereferenceable(608) %this, ptr noundef nonnull align 8 dereferenceable(16) %st) unnamed_addr #3 align 2 {
entry:
  tail call void @_ZNK3smt12theory_array18collect_statisticsER10statistics(ptr noundef nonnull align 8 dereferenceable(444) %this, ptr noundef nonnull align 8 dereferenceable(16) %st)
  %m_num_map_axiom = getelementptr inbounds i8, ptr %this, i64 292
  %0 = load i32, ptr %m_num_map_axiom, align 4
  tail call void @_ZN10statistics6updateEPKcj(ptr noundef nonnull align 8 dereferenceable(16) %st, ptr noundef nonnull @.str.13, i32 noundef %0)
  %m_num_default_const_axiom = getelementptr inbounds i8, ptr %this, i64 308
  %1 = load i32, ptr %m_num_default_const_axiom, align 4
  tail call void @_ZN10statistics6updateEPKcj(ptr noundef nonnull align 8 dereferenceable(16) %st, ptr noundef nonnull @.str.14, i32 noundef %1)
  %m_num_select_const_axiom = getelementptr inbounds i8, ptr %this, i64 300
  %2 = load i32, ptr %m_num_select_const_axiom, align 4
  tail call void @_ZN10statistics6updateEPKcj(ptr noundef nonnull align 8 dereferenceable(16) %st, ptr noundef nonnull @.str.15, i32 noundef %2)
  %m_num_default_store_axiom = getelementptr inbounds i8, ptr %this, i64 304
  %3 = load i32, ptr %m_num_default_store_axiom, align 8
  tail call void @_ZN10statistics6updateEPKcj(ptr noundef nonnull align 8 dereferenceable(16) %st, ptr noundef nonnull @.str.16, i32 noundef %3)
  %m_num_default_as_array_axiom = getelementptr inbounds i8, ptr %this, i64 312
  %4 = load i32, ptr %m_num_default_as_array_axiom, align 8
  tail call void @_ZN10statistics6updateEPKcj(ptr noundef nonnull align 8 dereferenceable(16) %st, ptr noundef nonnull @.str.17, i32 noundef %4)
  %m_num_select_as_array_axiom = getelementptr inbounds i8, ptr %this, i64 316
  %5 = load i32, ptr %m_num_select_as_array_axiom, align 4
  tail call void @_ZN10statistics6updateEPKcj(ptr noundef nonnull align 8 dereferenceable(16) %st, ptr noundef nonnull @.str.18, i32 noundef %5)
  %m_num_default_lambda_axiom = getelementptr inbounds i8, ptr %this, i64 320
  %6 = load i32, ptr %m_num_default_lambda_axiom, align 8
  tail call void @_ZN10statistics6updateEPKcj(ptr noundef nonnull align 8 dereferenceable(16) %st, ptr noundef nonnull @.str.19, i32 noundef %6)
  ret void
}